; Function Attrs: nounwind uwtable
define internal ptr @py_blake2b_get_block_size(ptr noundef readonly captures(none) %0, ptr readnone captures(none) %1) #2 {
  %3 = getelementptr inbounds nuw i8, ptr %0, i64 24
  %4 = load i32, ptr %3, align 8, !tbaa !42
  %5 = and i32 %4, -3
  %6 = icmp eq i32 %5, 1
  %7 = select i1 %6, i64 128, i64 64
  %8 = tail call ptr @PyLong_FromLong(i64 noundef %7) #9
  ret ptr %8
}